target datalayout = "e-m:e-p270:32:32-p271:32:32-p272:64:64-i64:64-i128:128-f80:128-n8:16:32:64-S128"
target triple = "x86_64-pc-linux-gnu"

%"struct.nanobind::dlpack::dtype" = type { i8, i8, i16 }
%"class.nanobind::handle" = type { ptr }
%"struct.nanobind::dlpack::dltensor" = type { ptr, %"struct.nanobind::dlpack::device", i32, %"struct.nanobind::dlpack::dtype", ptr, ptr, i64 }
%"struct.nanobind::dlpack::device" = type { i32, i32 }
%"struct.nanobind::detail::tuple.170" = type { %"struct.nanobind::detail::type_caster.171" }
%"struct.nanobind::detail::type_caster.171" = type { %"class.nanobind::ndarray.172" }
%"class.nanobind::ndarray.172" = type { ptr, %"struct.nanobind::dlpack::dltensor" }
%class.anon.333 = type { i8 }

; Function Attrs: inlinehint mustprogress nounwind optsize uwtable
define linkonce_odr hidden void @_ZN8nanobind6dlpack5dtypeC2Ev(ptr noundef nonnull align 2 dereferenceable(4) %0) unnamed_addr #11 comdat align 2 {
  %2 = alloca ptr, align 8
  store ptr %0, ptr %2, align 8, !tbaa !152
  %3 = load ptr, ptr %2, align 8
  %4 = getelementptr inbounds nuw %"struct.nanobind::dlpack::dtype", ptr %3, i32 0, i32 0
  store i8 0, ptr %4, align 2, !tbaa !154
  %5 = getelementptr inbounds nuw %"struct.nanobind::dlpack::dtype", ptr %3, i32 0, i32 1
  store i8 0, ptr %5, align 1, !tbaa !155
  %6 = getelementptr inbounds nuw %"struct.nanobind::dlpack::dtype", ptr %3, i32 0, i32 2
  store i16 0, ptr %6, align 2, !tbaa !156
  ret void
}

; Function Attrs: inlinehint mustprogress nounwind optsize uwtable
define linkonce_odr hidden void @_ZN8nanobind6dlpack6deviceC2Ev(ptr noundef nonnull align 4 dereferenceable(8) %0) unnamed_addr #11 comdat align 2 {
  %2 = alloca ptr, align 8
  store ptr %0, ptr %2, align 8, !tbaa !148
  %3 = load ptr, ptr %2, align 8
  %4 = getelementptr inbounds nuw %"struct.nanobind::dlpack::device", ptr %3, i32 0, i32 0
  store i32 0, ptr %4, align 4, !tbaa !150
  %5 = getelementptr inbounds nuw %"struct.nanobind::dlpack::device", ptr %3, i32 0, i32 1
  store i32 0, ptr %5, align 4, !tbaa !151
  ret void
}

; Function Attrs: mustprogress nounwind optsize uwtable
define linkonce_odr hidden void @_ZN8nanobind7ndarrayIJEEC2Ev(ptr noundef nonnull align 8 dereferenceable(56) %0) unnamed_addr #8 comdat align 2 {
  %2 = alloca ptr, align 8
  store ptr %0, ptr %2, align 8, !tbaa !187
  %3 = load ptr, ptr %2, align 8
  %4 = getelementptr inbounds nuw %"class.nanobind::ndarray.172", ptr %3, i32 0, i32 0
  store ptr null, ptr %4, align 8, !tbaa !189
  %5 = getelementptr inbounds nuw %"class.nanobind::ndarray.172", ptr %3, i32 0, i32 1
  call void @_ZN8nanobind6dlpack8dltensorC2Ev(ptr noundef nonnull align 8 dereferenceable(48) %5) #23
  ret void
}

; Function Attrs: inlinehint mustprogress nounwind optsize uwtable
define linkonce_odr hidden void @_ZN8nanobind6detail11type_casterINS_7ndarrayIJEEEiED2Ev(ptr noundef nonnull align 8 dereferenceable(56) %0) unnamed_addr #11 comdat align 2 {
  %2 = alloca ptr, align 8
  store ptr %0, ptr %2, align 8, !tbaa !185
  %3 = load ptr, ptr %2, align 8
  %4 = getelementptr inbounds nuw %"struct.nanobind::detail::type_caster.171", ptr %3, i32 0, i32 0
  call void @_ZN8nanobind7ndarrayIJEED2Ev(ptr noundef nonnull align 8 dereferenceable(56) %4) #23
  ret void
}

; Function Attrs: inlinehint mustprogress nounwind optsize uwtable
define linkonce_odr hidden void @_ZN8nanobind6dlpack8dltensorC2Ev(ptr noundef nonnull align 8 dereferenceable(48) %0) unnamed_addr #11 comdat align 2 {
  %2 = alloca ptr, align 8
  store ptr %0, ptr %2, align 8, !tbaa !141
  %3 = load ptr, ptr %2, align 8
  %4 = getelementptr inbounds nuw %"struct.nanobind::dlpack::dltensor", ptr %3, i32 0, i32 0
  store ptr null, ptr %4, align 8, !tbaa !143
  %5 = getelementptr inbounds nuw %"struct.nanobind::dlpack::dltensor", ptr %3, i32 0, i32 1
  call void @_ZN8nanobind6dlpack6deviceC2Ev(ptr noundef nonnull align 4 dereferenceable(8) %5) #23
  %6 = getelementptr inbounds nuw %"struct.nanobind::dlpack::dltensor", ptr %3, i32 0, i32 2
  store i32 0, ptr %6, align 8, !tbaa !144
  %7 = getelementptr inbounds nuw %"struct.nanobind::dlpack::dltensor", ptr %3, i32 0, i32 3
  call void @_ZN8nanobind6dlpack5dtypeC2Ev(ptr noundef nonnull align 2 dereferenceable(4) %7) #23
  %8 = getelementptr inbounds nuw %"struct.nanobind::dlpack::dltensor", ptr %3, i32 0, i32 4
  store ptr null, ptr %8, align 8, !tbaa !145
  %9 = getelementptr inbounds nuw %"struct.nanobind::dlpack::dltensor", ptr %3, i32 0, i32 5
  store ptr null, ptr %9, align 8, !tbaa !146
  %10 = getelementptr inbounds nuw %"struct.nanobind::dlpack::dltensor", ptr %3, i32 0, i32 6
  store i64 0, ptr %10, align 8, !tbaa !147
  ret void
}

; Function Attrs: inlinehint mustprogress nounwind optsize uwtable
define linkonce_odr hidden void @_ZN8nanobind6detail11type_casterINS_7ndarrayIJEEEiEC2Ev(ptr noundef nonnull align 8 dereferenceable(56) %0) unnamed_addr #11 comdat align 2 {
  %2 = alloca ptr, align 8
  store ptr %0, ptr %2, align 8, !tbaa !185
  %3 = load ptr, ptr %2, align 8
  %4 = getelementptr inbounds nuw %"struct.nanobind::detail::type_caster.171", ptr %3, i32 0, i32 0
  call void @_ZN8nanobind7ndarrayIJEEC2Ev(ptr noundef nonnull align 8 dereferenceable(56) %4) #23
  ret void
}

; Function Attrs: inlinehint mustprogress nounwind optsize uwtable
define linkonce_odr hidden void @_ZN8nanobind6detail5tupleIJNS0_11type_casterINS_7ndarrayIJEEEiEEEED2Ev(ptr noundef nonnull align 8 dereferenceable(56) %0) unnamed_addr #11 comdat align 2 {
  %2 = alloca ptr, align 8
  store ptr %0, ptr %2, align 8, !tbaa !183
  %3 = load ptr, ptr %2, align 8
  %4 = getelementptr inbounds nuw %"struct.nanobind::detail::tuple.170", ptr %3, i32 0, i32 0
  call void @_ZN8nanobind6detail11type_casterINS_7ndarrayIJEEEiED2Ev(ptr noundef nonnull align 8 dereferenceable(56) %4) #23
  ret void
}

; Function Attrs: mustprogress nounwind optsize uwtable
define linkonce_odr hidden void @_ZN8nanobind7ndarrayIJEED2Ev(ptr noundef nonnull align 8 dereferenceable(56) %0) unnamed_addr #8 comdat align 2 {
  %2 = alloca ptr, align 8
  store ptr %0, ptr %2, align 8, !tbaa !187
  %3 = load ptr, ptr %2, align 8
  %4 = getelementptr inbounds nuw %"class.nanobind::ndarray.172", ptr %3, i32 0, i32 0
  %5 = load ptr, ptr %4, align 8, !tbaa !189
  call void @_ZN8nanobind6detail15ndarray_dec_refEPNS0_14ndarray_handleE(ptr noundef %5) #23
  ret void
}

; Function Attrs: alwaysinline mustprogress nounwind optsize uwtable
define linkonce_odr hidden noundef ptr @_ZNK8nanobind6handle3ptrEv(ptr noundef nonnull align 8 dereferenceable(8) %0) #5 comdat align 2 {
  %2 = alloca ptr, align 8
  store ptr %0, ptr %2, align 8, !tbaa !12
  %3 = load ptr, ptr %2, align 8
  %4 = getelementptr inbounds nuw %"class.nanobind::handle", ptr %3, i32 0, i32 0
  %5 = load ptr, ptr %4, align 8, !tbaa !14
  ret ptr %5
}

; Function Attrs: mustprogress nounwind optsize uwtable
define linkonce_odr hidden ptr @_ZN8nanobind6detail11type_casterIciE8from_cppEcNS_9rv_policyEPNS0_12cleanup_listE(i8 noundef signext %0, i32 noundef %1, ptr noundef %2) #8 comdat align 2 personality ptr @__gxx_personality_v0 {
  %4 = alloca %"class.nanobind::handle", align 8
  %5 = alloca i8, align 1
  %6 = alloca i32, align 4
  %7 = alloca ptr, align 8
  store i8 %0, ptr %5, align 1, !tbaa !20
  store i32 %1, ptr %6, align 4, !tbaa !18
  store ptr %2, ptr %7, align 8, !tbaa !127
  %8 = invoke ptr @PyUnicode_FromStringAndSize(ptr noundef %5, i64 noundef 1) #21
          to label %9 unwind label %13

9:                                                ; preds = %3
  invoke void @_ZN8nanobind6handleC2EPK7_object(ptr noundef nonnull align 8 dereferenceable(8) %4, ptr noundef %8) #21
          to label %10 unwind label %13

10:                                               ; preds = %9
  %11 = getelementptr inbounds nuw %"class.nanobind::handle", ptr %4, i32 0, i32 0
  %12 = load ptr, ptr %11, align 8
  ret ptr %12

13:                                               ; preds = %9, %3
  %14 = landingpad { ptr, i32 }
          catch ptr null
  %15 = extractvalue { ptr, i32 } %14, 0
  call void @__clang_call_terminate(ptr %15) #24
  unreachable
}

; Function Attrs: inlinehint mustprogress nounwind optsize uwtable
define internal noundef signext i8 @"_ZZL30nanobind_init_test_ndarray_extRN8nanobind7module_EENK4$_32clENS_7ndarrayIJEEE"(ptr noundef nonnull align 1 dereferenceable(1) %0, ptr noundef %1) #11 align 2 {
  %3 = alloca ptr, align 8
  %4 = alloca ptr, align 8
  store ptr %0, ptr %3, align 8, !tbaa !29
  store ptr %1, ptr %4, align 8, !tbaa !187
  ret i8 63
}

; Function Attrs: mustprogress nounwind optsize uwtable
define linkonce_odr hidden void @_ZN8nanobind7ndarrayIJEEC2EOS1_(ptr noundef nonnull align 8 dereferenceable(56) %0, ptr noundef nonnull align 8 dereferenceable(56) %1) unnamed_addr #8 comdat align 2 {
  %3 = alloca ptr, align 8
  %4 = alloca ptr, align 8
  %5 = alloca %"struct.nanobind::dlpack::dltensor", align 8
  store ptr %0, ptr %3, align 8, !tbaa !187
  store ptr %1, ptr %4, align 8, !tbaa !187
  %6 = load ptr, ptr %3, align 8
  %7 = getelementptr inbounds nuw %"class.nanobind::ndarray.172", ptr %6, i32 0, i32 0
  %8 = load ptr, ptr %4, align 8, !tbaa !187
  %9 = getelementptr inbounds nuw %"class.nanobind::ndarray.172", ptr %8, i32 0, i32 0
  %10 = load ptr, ptr %9, align 8, !tbaa !189
  store ptr %10, ptr %7, align 8, !tbaa !189
  %11 = getelementptr inbounds nuw %"class.nanobind::ndarray.172", ptr %6, i32 0, i32 1
  %12 = load ptr, ptr %4, align 8, !tbaa !187
  %13 = getelementptr inbounds nuw %"class.nanobind::ndarray.172", ptr %12, i32 0, i32 1
  call void @llvm.memcpy.p0.p0.i64(ptr align 8 %11, ptr align 8 %13, i64 48, i1 false), !tbaa.struct !159
  %14 = load ptr, ptr %4, align 8, !tbaa !187
  %15 = getelementptr inbounds nuw %"class.nanobind::ndarray.172", ptr %14, i32 0, i32 0
  store ptr null, ptr %15, align 8, !tbaa !189
  call void @llvm.lifetime.start.p0(i64 48, ptr %5) #22
  call void @llvm.memset.p0.i64(ptr align 8 %5, i8 0, i64 48, i1 false)
  call void @_ZN8nanobind6dlpack8dltensorC2Ev(ptr noundef nonnull align 8 dereferenceable(48) %5) #23
  %16 = load ptr, ptr %4, align 8, !tbaa !187
  %17 = getelementptr inbounds nuw %"class.nanobind::ndarray.172", ptr %16, i32 0, i32 1
  call void @llvm.memcpy.p0.p0.i64(ptr align 8 %17, ptr align 8 %5, i64 48, i1 false), !tbaa.struct !159
  call void @llvm.lifetime.end.p0(i64 48, ptr %5) #22
  ret void
}

; Function Attrs: mustprogress nounwind optsize uwtable
define linkonce_odr hidden noundef nonnull align 8 dereferenceable(56) ptr @_ZN8nanobind6detail11type_casterINS_7ndarrayIJEEEiEcvOS3_Ev(ptr noundef nonnull align 8 dereferenceable(56) %0) #8 comdat align 2 {
  %2 = alloca ptr, align 8
  store ptr %0, ptr %2, align 8, !tbaa !185
  %3 = load ptr, ptr %2, align 8
  %4 = getelementptr inbounds nuw %"struct.nanobind::detail::type_caster.171", ptr %3, i32 0, i32 0
  ret ptr %4
}

; Function Attrs: alwaysinline mustprogress nounwind optsize uwtable
define linkonce_odr hidden void @_ZN8nanobind6handleC2EPK7_object(ptr noundef nonnull align 8 dereferenceable(8) %0, ptr noundef %1) unnamed_addr #5 comdat align 2 {
  %3 = alloca ptr, align 8
  %4 = alloca ptr, align 8
  store ptr %0, ptr %3, align 8, !tbaa !12
  store ptr %1, ptr %4, align 8, !tbaa !3
  %5 = load ptr, ptr %3, align 8
  %6 = getelementptr inbounds nuw %"class.nanobind::handle", ptr %5, i32 0, i32 0
  %7 = load ptr, ptr %4, align 8, !tbaa !3
  store ptr %7, ptr %6, align 8, !tbaa !14
  ret void
}

; Function Attrs: alwaysinline mustprogress nounwind optsize uwtable
define linkonce_odr hidden noundef nonnull align 8 dereferenceable(56) ptr @_ZN8nanobind6detail5tupleIJNS0_11type_casterINS_7ndarrayIJEEEiEEEE3getILm0EEERDav(ptr noundef nonnull align 8 dereferenceable(56) %0) #5 comdat align 2 {
  %2 = alloca ptr, align 8
  store ptr %0, ptr %2, align 8, !tbaa !183
  %3 = load ptr, ptr %2, align 8
  %4 = getelementptr inbounds nuw %"struct.nanobind::detail::tuple.170", ptr %3, i32 0, i32 0
  ret ptr %4
}

; Function Attrs: mustprogress nounwind optsize uwtable
define linkonce_odr hidden void @_ZN8nanobind6detail5tupleIJNS0_11type_casterINS_7ndarrayIJEEEiEEEEC2Ev(ptr noundef nonnull align 8 dereferenceable(56) %0) unnamed_addr #8 comdat align 2 {
  %2 = alloca ptr, align 8
  store ptr %0, ptr %2, align 8, !tbaa !183
  %3 = load ptr, ptr %2, align 8
  %4 = getelementptr inbounds nuw %"struct.nanobind::detail::tuple.170", ptr %3, i32 0, i32 0
  call void @_ZN8nanobind6detail11type_casterINS_7ndarrayIJEEEiEC2Ev(ptr noundef nonnull align 8 dereferenceable(56) %4) #23
  ret void
}

; Function Attrs: alwaysinline mustprogress optsize uwtable
define internal noundef ptr @"_ZZN8nanobind6detail11func_createILb0ELb1EZL30nanobind_init_test_ndarray_extRNS_7module_EE4$_32cJNS_7ndarrayIJEEEEJLm0EEJNS_5scopeENS_4nameEEEEP7_objectOT1_PFT2_DpT3_ESt16integer_sequenceImJXspT4_EEEDpRKT5_ENKUlPvPSA_PhNS_9rv_policyEPNS0_12cleanup_listEE_clESO_SP_SQ_SR_ST_"(ptr noundef nonnull align 1 dereferenceable(1) %0, ptr noundef %1, ptr noundef %2, ptr noundef %3, i32 noundef %4, ptr noundef %5) #3 align 2 personality ptr @__gxx_personality_v0 {
  %7 = alloca ptr, align 8
  %8 = alloca ptr, align 8
  %9 = alloca ptr, align 8
  %10 = alloca ptr, align 8
  %11 = alloca ptr, align 8
  %12 = alloca i32, align 4
  %13 = alloca ptr, align 8
  %14 = alloca ptr, align 8
  %15 = alloca %"struct.nanobind::detail::tuple.170", align 8
  %16 = alloca %"class.nanobind::handle", align 8
  %17 = alloca ptr, align 8
  %18 = alloca i32, align 4
  %19 = alloca i32, align 4
  %20 = alloca ptr, align 8
  %21 = alloca %"class.nanobind::handle", align 8
  %22 = alloca %"class.nanobind::ndarray.172", align 8
  store ptr %0, ptr %8, align 8, !tbaa !29
  store ptr %1, ptr %9, align 8, !tbaa !29
  store ptr %2, ptr %10, align 8, !tbaa !125
  store ptr %3, ptr %11, align 8, !tbaa !27
  store i32 %4, ptr %12, align 4, !tbaa !18
  store ptr %5, ptr %13, align 8, !tbaa !127
  call void @llvm.lifetime.start.p0(i64 8, ptr %14) #22
  %23 = load ptr, ptr %9, align 8, !tbaa !29
  store ptr %23, ptr %14, align 8, !tbaa !456
  call void @llvm.lifetime.start.p0(i64 56, ptr %15) #22
  call void @_ZN8nanobind6detail5tupleIJNS0_11type_casterINS_7ndarrayIJEEEiEEEEC2Ev(ptr noundef nonnull align 8 dereferenceable(56) %15) #23
  %24 = call noundef nonnull align 8 dereferenceable(56) ptr @_ZN8nanobind6detail5tupleIJNS0_11type_casterINS_7ndarrayIJEEEiEEEE3getILm0EEERDav(ptr noundef nonnull align 8 dereferenceable(56) %15) #21
  %25 = load ptr, ptr %10, align 8, !tbaa !125
  %26 = getelementptr inbounds nuw ptr, ptr %25, i64 0
  %27 = load ptr, ptr %26, align 8, !tbaa !3
  invoke void @_ZN8nanobind6handleC2EPK7_object(ptr noundef nonnull align 8 dereferenceable(8) %16, ptr noundef %27) #21
          to label %28 unwind label %37

28:                                               ; preds = %6
  %29 = load ptr, ptr %11, align 8, !tbaa !27
  %30 = getelementptr inbounds nuw i8, ptr %29, i64 0
  %31 = load i8, ptr %30, align 1, !tbaa !20
  %32 = load ptr, ptr %13, align 8, !tbaa !127
  %33 = getelementptr inbounds nuw %"class.nanobind::handle", ptr %16, i32 0, i32 0
  %34 = load ptr, ptr %33, align 8
  %35 = call noundef zeroext i1 @_ZN8nanobind6detail11type_casterINS_7ndarrayIJEEEiE11from_pythonENS_6handleEhPNS0_12cleanup_listE(ptr noundef nonnull align 8 dereferenceable(56) %24, ptr %34, i8 noundef zeroext %31, ptr noundef %32) #23
  br i1 %35, label %41, label %36

36:                                               ; preds = %28
  store ptr inttoptr (i64 1 to ptr), ptr %7, align 8
  store i32 1, ptr %19, align 4
  br label %57

37:                                               ; preds = %6
  %38 = landingpad { ptr, i32 }
          cleanup
  %39 = extractvalue { ptr, i32 } %38, 0
  store ptr %39, ptr %17, align 8
  %40 = extractvalue { ptr, i32 } %38, 1
  store i32 %40, ptr %18, align 4
  br label %59

41:                                               ; preds = %28
  call void @llvm.lifetime.start.p0(i64 8, ptr %20) #22
  call void @llvm.lifetime.start.p0(i64 8, ptr %21) #22
  %42 = load ptr, ptr %14, align 8, !tbaa !456
  %43 = call noundef nonnull align 8 dereferenceable(56) ptr @_ZN8nanobind6detail5tupleIJNS0_11type_casterINS_7ndarrayIJEEEiEEEE3getILm0EEERDav(ptr noundef nonnull align 8 dereferenceable(56) %15) #21
  %44 = call noundef nonnull align 8 dereferenceable(56) ptr @_ZN8nanobind6detail11type_casterINS_7ndarrayIJEEEiEcvOS3_Ev(ptr noundef nonnull align 8 dereferenceable(56) %43) #21
  call void @_ZN8nanobind7ndarrayIJEEC2EOS1_(ptr noundef nonnull align 8 dereferenceable(56) %22, ptr noundef nonnull align 8 dereferenceable(56) %44) #23
  %45 = invoke noundef signext i8 @"_ZZL30nanobind_init_test_ndarray_extRN8nanobind7module_EENK4$_32clENS_7ndarrayIJEEE"(ptr noundef nonnull align 1 dereferenceable(1) %42, ptr noundef %22) #21
          to label %46 unwind label %53

46:                                               ; preds = %41
  %47 = load i32, ptr %12, align 4, !tbaa !18
  %48 = load ptr, ptr %13, align 8, !tbaa !127
  %49 = call ptr @_ZN8nanobind6detail11type_casterIciE8from_cppEcNS_9rv_policyEPNS0_12cleanup_listE(i8 noundef signext %45, i32 noundef %47, ptr noundef %48) #23
  %50 = getelementptr inbounds nuw %"class.nanobind::handle", ptr %21, i32 0, i32 0
  store ptr %49, ptr %50, align 8
  %51 = call noundef ptr @_ZNK8nanobind6handle3ptrEv(ptr noundef nonnull align 8 dereferenceable(8) %21) #21
  store ptr %51, ptr %20, align 8, !tbaa !3
  call void @_ZN8nanobind7ndarrayIJEED2Ev(ptr noundef nonnull align 8 dereferenceable(56) %22) #23
  call void @llvm.lifetime.end.p0(i64 8, ptr %21) #22
  %52 = load ptr, ptr %20, align 8, !tbaa !3
  store ptr %52, ptr %7, align 8
  store i32 1, ptr %19, align 4
  call void @llvm.lifetime.end.p0(i64 8, ptr %20) #22
  br label %57

53:                                               ; preds = %41
  %54 = landingpad { ptr, i32 }
          cleanup
  %55 = extractvalue { ptr, i32 } %54, 0
  store ptr %55, ptr %17, align 8
  %56 = extractvalue { ptr, i32 } %54, 1
  store i32 %56, ptr %18, align 4
  call void @_ZN8nanobind7ndarrayIJEED2Ev(ptr noundef nonnull align 8 dereferenceable(56) %22) #23
  call void @llvm.lifetime.end.p0(i64 8, ptr %21) #22
  call void @llvm.lifetime.end.p0(i64 8, ptr %20) #22
  br label %59

57:                                               ; preds = %46, %36
  call void @_ZN8nanobind6detail5tupleIJNS0_11type_casterINS_7ndarrayIJEEEiEEEED2Ev(ptr noundef nonnull align 8 dereferenceable(56) %15) #23
  call void @llvm.lifetime.end.p0(i64 56, ptr %15) #22
  call void @llvm.lifetime.end.p0(i64 8, ptr %14) #22
  %58 = load ptr, ptr %7, align 8
  ret ptr %58

59:                                               ; preds = %53, %37
  call void @_ZN8nanobind6detail5tupleIJNS0_11type_casterINS_7ndarrayIJEEEiEEEED2Ev(ptr noundef nonnull align 8 dereferenceable(56) %15) #23
  call void @llvm.lifetime.end.p0(i64 56, ptr %15) #22
  call void @llvm.lifetime.end.p0(i64 8, ptr %14) #22
  br label %60

60:                                               ; preds = %59
  %61 = load ptr, ptr %17, align 8
  %62 = load i32, ptr %18, align 4
  %63 = insertvalue { ptr, i32 } poison, ptr %61, 0
  %64 = insertvalue { ptr, i32 } %63, i32 %62, 1
  resume { ptr, i32 } %64
}

; Function Attrs: inlinehint mustprogress optsize uwtable
define internal noundef ptr @"_ZZN8nanobind6detail11func_createILb0ELb1EZL30nanobind_init_test_ndarray_extRNS_7module_EE4$_32cJNS_7ndarrayIJEEEEJLm0EEJNS_5scopeENS_4nameEEEEP7_objectOT1_PFT2_DpT3_ESt16integer_sequenceImJXspT4_EEEDpRKT5_ENUlPvPSA_PhNS_9rv_policyEPNS0_12cleanup_listEE_8__invokeESO_SP_SQ_SR_ST_"(ptr noundef %0, ptr noundef %1, ptr noundef %2, i32 noundef %3, ptr noundef %4) #9 align 2 {
  %6 = alloca ptr, align 8
  %7 = alloca ptr, align 8
  %8 = alloca ptr, align 8
  %9 = alloca i32, align 4
  %10 = alloca ptr, align 8
  %11 = alloca %class.anon.333, align 1
  store ptr %0, ptr %6, align 8, !tbaa !29
  store ptr %1, ptr %7, align 8, !tbaa !125
  store ptr %2, ptr %8, align 8, !tbaa !27
  store i32 %3, ptr %9, align 4, !tbaa !18
  store ptr %4, ptr %10, align 8, !tbaa !127
  %12 = load ptr, ptr %6, align 8, !tbaa !29
  %13 = load ptr, ptr %7, align 8, !tbaa !125
  %14 = load ptr, ptr %8, align 8, !tbaa !27
  %15 = load i32, ptr %9, align 4, !tbaa !18
  %16 = load ptr, ptr %10, align 8, !tbaa !127
  %17 = call noundef ptr @"_ZZN8nanobind6detail11func_createILb0ELb1EZL30nanobind_init_test_ndarray_extRNS_7module_EE4$_32cJNS_7ndarrayIJEEEEJLm0EEJNS_5scopeENS_4nameEEEEP7_objectOT1_PFT2_DpT3_ESt16integer_sequenceImJXspT4_EEEDpRKT5_ENKUlPvPSA_PhNS_9rv_policyEPNS0_12cleanup_listEE_clESO_SP_SQ_SR_ST_"(ptr noundef nonnull align 1 dereferenceable(1) %11, ptr noundef %12, ptr noundef %13, ptr noundef %14, i32 noundef %15, ptr noundef %16) #21
  ret ptr %17
}