; Function Attrs: inlinehint mustprogress nounwind optsize uwtable
define internal noundef ptr @"_ZZN8nanobind6detail11func_createILb0ELb1EZL30nanobind_init_test_ndarray_extRNS_7module_EE4$_32cJNS_7ndarrayIJEEEEJLm0EEJNS_5scopeENS_4nameEEEEP7_objectOT1_PFT2_DpT3_ESt16integer_sequenceImJXspT4_EEEDpRKT5_ENUlPvPSA_PhNS_9rv_policyEPNS0_12cleanup_listEE_8__invokeESO_SP_SQ_SR_ST_"(ptr readnone captures(none) %0, ptr noundef readonly captures(none) %1, ptr noundef readonly captures(none) %2, i32 %3, ptr noundef %4) #8 align 2 personality ptr @__gxx_personality_v0 {
  %6 = alloca i8, align 1
  %7 = alloca %"struct.nanobind::detail::tuple.170", align 8
  call void @llvm.lifetime.start.p0(i64 56, ptr nonnull %7) #22
  call void @llvm.memset.p0.i64(ptr noundef nonnull align 8 dereferenceable(56) %7, i8 0, i64 56, i1 false)
  %8 = load ptr, ptr %1, align 8, !tbaa !93
  %9 = load i8, ptr %2, align 1, !tbaa !60
  %10 = call noundef zeroext i1 @_ZN8nanobind6detail11type_casterINS_7ndarrayIJEEEiE11from_pythonENS_6handleEhPNS0_12cleanup_listE(ptr noundef nonnull align 8 dereferenceable(56) %7, ptr %8, i8 noundef zeroext %9, ptr noundef %4) #23
  br i1 %10, label %11, label %"_ZZN8nanobind6detail11func_createILb0ELb1EZL30nanobind_init_test_ndarray_extRNS_7module_EE4$_32cJNS_7ndarrayIJEEEEJLm0EEJNS_5scopeENS_4nameEEEEP7_objectOT1_PFT2_DpT3_ESt16integer_sequenceImJXspT4_EEEDpRKT5_ENKUlPvPSA_PhNS_9rv_policyEPNS0_12cleanup_listEE_clESO_SP_SQ_SR_ST_.exit"

11:                                               ; preds = %5
  %12 = load ptr, ptr %7, align 8, !tbaa !115
  call void @llvm.memset.p0.i64(ptr noundef nonnull align 8 dereferenceable(56) %7, i8 0, i64 56, i1 false)
  call void @llvm.lifetime.start.p0(i64 1, ptr nonnull %6)
  store i8 63, ptr %6, align 1, !tbaa !60
  %13 = invoke ptr @PyUnicode_FromStringAndSize(ptr noundef nonnull %6, i64 noundef 1) #21
          to label %_ZN8nanobind6detail11type_casterIciE8from_cppEcNS_9rv_policyEPNS0_12cleanup_listE.exit unwind label %14

14:                                               ; preds = %11
  %15 = landingpad { ptr, i32 }
          catch ptr null
  %16 = extractvalue { ptr, i32 } %15, 0
  call void @__clang_call_terminate(ptr %16) #24
  unreachable

_ZN8nanobind6detail11type_casterIciE8from_cppEcNS_9rv_policyEPNS0_12cleanup_listE.exit: ; preds = %11
  call void @llvm.lifetime.end.p0(i64 1, ptr nonnull %6)
  call void @_ZN8nanobind6detail15ndarray_dec_refEPNS0_14ndarray_handleE(ptr noundef %12) #23
  br label %"_ZZN8nanobind6detail11func_createILb0ELb1EZL30nanobind_init_test_ndarray_extRNS_7module_EE4$_32cJNS_7ndarrayIJEEEEJLm0EEJNS_5scopeENS_4nameEEEEP7_objectOT1_PFT2_DpT3_ESt16integer_sequenceImJXspT4_EEEDpRKT5_ENKUlPvPSA_PhNS_9rv_policyEPNS0_12cleanup_listEE_clESO_SP_SQ_SR_ST_.exit"

"_ZZN8nanobind6detail11func_createILb0ELb1EZL30nanobind_init_test_ndarray_extRNS_7module_EE4$_32cJNS_7ndarrayIJEEEEJLm0EEJNS_5scopeENS_4nameEEEEP7_objectOT1_PFT2_DpT3_ESt16integer_sequenceImJXspT4_EEEDpRKT5_ENKUlPvPSA_PhNS_9rv_policyEPNS0_12cleanup_listEE_clESO_SP_SQ_SR_ST_.exit": ; preds = %5, %_ZN8nanobind6detail11type_casterIciE8from_cppEcNS_9rv_policyEPNS0_12cleanup_listE.exit
  %.0.i = phi ptr [ %13, %_ZN8nanobind6detail11type_casterIciE8from_cppEcNS_9rv_policyEPNS0_12cleanup_listE.exit ], [ inttoptr (i64 1 to ptr), %5 ]
  %17 = load ptr, ptr %7, align 8, !tbaa !115
  call void @_ZN8nanobind6detail15ndarray_dec_refEPNS0_14ndarray_handleE(ptr noundef %17) #23
  call void @llvm.lifetime.end.p0(i64 56, ptr nonnull %7) #22
  ret ptr %.0.i
}